; Function Attrs: nounwind uwtable
define hidden void @zim_SplDoublyLinkedList_isEmpty(ptr noundef readonly captures(none) %0, ptr noundef writeonly captures(none) %1) #0 {
  %3 = alloca %struct._zval_struct, align 8
  %4 = getelementptr inbounds nuw i8, ptr %0, i64 44
  %5 = load i32, ptr %4, align 4, !tbaa !4
  %.not = icmp eq i32 %5, 0
  br i1 %.not, label %.critedge, label %6, !prof !59

6:                                                ; preds = %2
  tail call void @zend_wrong_parameters_none_error() #13
  %7 = load ptr, ptr getelementptr inbounds nuw (i8, ptr @executor_globals, i64 960), align 8, !tbaa !7
  %8 = icmp ne ptr %7, null
  tail call void @llvm.assume(i1 %8)
  br label %33

.critedge:                                        ; preds = %2
  %9 = getelementptr inbounds nuw i8, ptr %0, i64 32
  %10 = load ptr, ptr %9, align 8, !tbaa !4
  %11 = getelementptr inbounds i8, ptr %10, i64 -16
  %12 = load ptr, ptr %11, align 8, !tbaa !62
  %.not.i = icmp eq ptr %12, null
  br i1 %.not.i, label %25, label %13

13:                                               ; preds = %.critedge
  call void @llvm.lifetime.start.p0(i64 16, ptr nonnull %3) #13
  %14 = getelementptr inbounds nuw i8, ptr %10, i64 16
  %15 = load ptr, ptr %14, align 8, !tbaa !63
  %16 = call ptr @zend_call_method(ptr noundef nonnull %10, ptr noundef %15, ptr noundef nonnull %11, ptr noundef nonnull @.str.14, i64 noundef 5, ptr noundef nonnull %3, i32 noundef 0, ptr noundef null, ptr noundef null) #13
  %17 = getelementptr inbounds nuw i8, ptr %3, i64 8
  %18 = load i8, ptr %17, align 8, !tbaa !4
  switch i8 %18, label %21 [
    i8 0, label %24
    i8 4, label %19
  ], !prof !64

19:                                               ; preds = %13
  %20 = load i64, ptr %3, align 8, !tbaa !4
  br label %zval_get_long.exit.i

21:                                               ; preds = %13
  %22 = call i64 @zval_get_long_func(ptr noundef nonnull %3, i1 noundef zeroext false) #13
  br label %zval_get_long.exit.i

zval_get_long.exit.i:                             ; preds = %21, %19
  %23 = phi i64 [ %20, %19 ], [ %22, %21 ]
  call void @zval_ptr_dtor(ptr noundef nonnull %3) #13
  br label %24

24:                                               ; preds = %13, %zval_get_long.exit.i
  %.0 = phi i64 [ %23, %zval_get_long.exit.i ], [ 0, %13 ]
  call void @llvm.lifetime.end.p0(i64 16, ptr nonnull %3) #13
  br label %spl_dllist_object_count_elements.exit

25:                                               ; preds = %.critedge
  %26 = getelementptr inbounds i8, ptr %10, i64 -72
  %27 = load ptr, ptr %26, align 8, !tbaa !43
  %28 = getelementptr i8, ptr %27, i64 16
  %.val.i = load i32, ptr %28, align 8, !tbaa !58
  %29 = sext i32 %.val.i to i64
  br label %spl_dllist_object_count_elements.exit

spl_dllist_object_count_elements.exit:            ; preds = %24, %25
  %.1 = phi i64 [ %29, %25 ], [ %.0, %24 ]
  %30 = icmp eq i64 %.1, 0
  %31 = select i1 %30, i32 3, i32 2
  %32 = getelementptr inbounds nuw i8, ptr %1, i64 8
  store i32 %31, ptr %32, align 8, !tbaa !4
  br label %33

33:                                               ; preds = %spl_dllist_object_count_elements.exit, %6
  ret void
}